target datalayout = "e-m:e-p270:32:32-p271:32:32-p272:64:64-i64:64-i128:128-f80:128-n8:16:32:64-S128"
target triple = "x86_64-pc-linux-gnu"

%struct.AVFormatContext = type { ptr, ptr, ptr, ptr, ptr, i32, i32, ptr, i32, ptr, i32, ptr, ptr, i64, i64, i64, i32, i32, i32, i64, i64, ptr, i32, i32, ptr, i32, i32, i32, i32, ptr, i64, i32, i32, %struct.AVIOInterruptCB, i32, i32, i32, i32, i64, i32, i32, i32, i32, i32, i32, i32, i32, i32, i32, i32, i32, i64, i32, i32, i32, i32, i32, ptr, ptr, ptr, ptr, i32, ptr, ptr, ptr, ptr, i32, ptr, ptr, i64, ptr, ptr, ptr, i64 }
%struct.AVIOInterruptCB = type { ptr, ptr }
%struct.AVStream = type { ptr, i32, i32, ptr, ptr, %struct.AVRational, i64, i64, i64, i32, i32, %struct.AVRational, ptr, %struct.AVRational, %struct.AVPacket, i32, %struct.AVRational, i32 }
%struct.AVPacket = type { ptr, i64, i64, ptr, i32, i32, i32, ptr, i32, i64, i64, ptr, ptr, %struct.AVRational }
%struct.AVRational = type { i32, i32 }
%struct.AVCodecParameters = type { i32, i32, i32, ptr, i32, ptr, i32, i32, i64, i32, i32, i32, i32, i32, i32, %struct.AVRational, %struct.AVRational, i32, i32, i32, i32, i32, i32, i32, %struct.AVChannelLayout, i32, i32, i32, i32, i32, i32 }
%struct.AVChannelLayout = type { i32, i32, %union.anon, ptr }
%union.anon = type { i64 }
%struct.VPlayerContext = type { %struct.FFDemuxSubtitlesQueue }
%struct.FFDemuxSubtitlesQueue = type { ptr, i32, i32, i32, i32, i32 }

@.str.5 = private unnamed_addr constant [4 x i8] c": =\00", align 1
@.str.6 = private unnamed_addr constant [3 x i8] c"\0D\0A\00", align 1
@.str.7 = private unnamed_addr constant [16 x i8] c"%d:%d:%d.%d%c%n\00", align 1
@.str.8 = private unnamed_addr constant [13 x i8] c"%d:%d:%d%c%n\00", align 1

; Function Attrs: nounwind uwtable
define internal i64 @read_ts(ptr noundef %0) #0 {
  %2 = alloca i64, align 8
  %3 = alloca ptr, align 8
  %4 = alloca i8, align 1
  %5 = alloca i32, align 4
  %6 = alloca i32, align 4
  %7 = alloca i32, align 4
  %8 = alloca i32, align 4
  %9 = alloca i32, align 4
  %10 = alloca i32, align 4
  %11 = alloca i32, align 4
  store ptr %0, ptr %3, align 8, !tbaa !57
  call void @llvm.lifetime.start.p0(i64 1, ptr %4) #6
  call void @llvm.lifetime.start.p0(i64 4, ptr %5) #6
  call void @llvm.lifetime.start.p0(i64 4, ptr %6) #6
  call void @llvm.lifetime.start.p0(i64 4, ptr %7) #6
  call void @llvm.lifetime.start.p0(i64 4, ptr %8) #6
  call void @llvm.lifetime.start.p0(i64 4, ptr %9) #6
  call void @llvm.lifetime.start.p0(i64 4, ptr %10) #6
  %12 = load ptr, ptr %3, align 8, !tbaa !57
  %13 = load ptr, ptr %12, align 8, !tbaa !13
  %14 = call i32 (ptr, ptr, ...) @__isoc99_sscanf(ptr noundef %13, ptr noundef @.str.7, ptr noundef %5, ptr noundef %6, ptr noundef %7, ptr noundef %8, ptr noundef %4, ptr noundef %10) #6
  store i32 %14, ptr %9, align 4, !tbaa !48
  %15 = icmp sge i32 %14, 5
  br i1 %15, label %21, label %16

16:                                               ; preds = %1
  %17 = load ptr, ptr %3, align 8, !tbaa !57
  %18 = load ptr, ptr %17, align 8, !tbaa !13
  %19 = call i32 (ptr, ptr, ...) @__isoc99_sscanf(ptr noundef %18, ptr noundef @.str.8, ptr noundef %5, ptr noundef %6, ptr noundef %7, ptr noundef %4, ptr noundef %10) #6
  store i32 %19, ptr %9, align 4, !tbaa !48
  %20 = icmp sge i32 %19, 4
  br i1 %20, label %21, label %52

21:                                               ; preds = %16, %1
  %22 = load i8, ptr %4, align 1, !tbaa !14
  %23 = sext i8 %22 to i32
  %24 = call ptr @strchr(ptr noundef @.str.5, i32 noundef %23) #7
  %25 = icmp ne ptr %24, null
  br i1 %25, label %26, label %52

26:                                               ; preds = %21
  %27 = load i32, ptr %10, align 4, !tbaa !48
  %28 = load ptr, ptr %3, align 8, !tbaa !57
  %29 = load ptr, ptr %28, align 8, !tbaa !13
  %30 = sext i32 %27 to i64
  %31 = getelementptr inbounds i8, ptr %29, i64 %30
  store ptr %31, ptr %28, align 8, !tbaa !13
  %32 = load i32, ptr %5, align 4, !tbaa !48
  %33 = sext i32 %32 to i64
  %34 = mul nsw i64 %33, 3600
  %35 = load i32, ptr %6, align 4, !tbaa !48
  %36 = sext i32 %35 to i64
  %37 = mul nsw i64 %36, 60
  %38 = add nsw i64 %34, %37
  %39 = load i32, ptr %7, align 4, !tbaa !48
  %40 = sext i32 %39 to i64
  %41 = add nsw i64 %38, %40
  %42 = mul nsw i64 %41, 100
  %43 = load i32, ptr %9, align 4, !tbaa !48
  %44 = icmp slt i32 %43, 5
  br i1 %44, label %45, label %46

45:                                               ; preds = %26
  br label %48

46:                                               ; preds = %26
  %47 = load i32, ptr %8, align 4, !tbaa !48
  br label %48

48:                                               ; preds = %46, %45
  %49 = phi i32 [ 0, %45 ], [ %47, %46 ]
  %50 = sext i32 %49 to i64
  %51 = add nsw i64 %42, %50
  store i64 %51, ptr %2, align 8
  store i32 1, ptr %11, align 4
  br label %53

52:                                               ; preds = %21, %16
  store i64 -9223372036854775808, ptr %2, align 8
  store i32 1, ptr %11, align 4
  br label %53

53:                                               ; preds = %52, %48
  call void @llvm.lifetime.end.p0(i64 4, ptr %10) #6
  call void @llvm.lifetime.end.p0(i64 4, ptr %9) #6
  call void @llvm.lifetime.end.p0(i64 4, ptr %8) #6
  call void @llvm.lifetime.end.p0(i64 4, ptr %7) #6
  call void @llvm.lifetime.end.p0(i64 4, ptr %6) #6
  call void @llvm.lifetime.end.p0(i64 4, ptr %5) #6
  call void @llvm.lifetime.end.p0(i64 1, ptr %4) #6
  %54 = load i64, ptr %2, align 8
  ret i64 %54
}

; Function Attrs: alwaysinline nounwind uwtable
define internal i64 @avio_tell(ptr noundef %0) #5 {
  %2 = alloca ptr, align 8
  store ptr %0, ptr %2, align 8, !tbaa !56
  %3 = load ptr, ptr %2, align 8, !tbaa !56
  %4 = call i64 @avio_seek(ptr noundef %3, i64 noundef 0, i32 noundef 1)
  ret i64 %4
}

; Function Attrs: nounwind uwtable
define internal i32 @vplayer_read_header(ptr noundef %0) #0 {
  %2 = alloca i32, align 4
  %3 = alloca ptr, align 8
  %4 = alloca ptr, align 8
  %5 = alloca ptr, align 8
  %6 = alloca i32, align 4
  %7 = alloca [4096 x i8], align 16
  %8 = alloca ptr, align 8
  %9 = alloca i64, align 8
  %10 = alloca i32, align 4
  %11 = alloca i64, align 8
  %12 = alloca ptr, align 8
  store ptr %0, ptr %3, align 8, !tbaa !15
  call void @llvm.lifetime.start.p0(i64 8, ptr %4) #6
  %13 = load ptr, ptr %3, align 8, !tbaa !15
  %14 = getelementptr inbounds nuw %struct.AVFormatContext, ptr %13, i32 0, i32 3
  %15 = load ptr, ptr %14, align 8, !tbaa !17
  store ptr %15, ptr %4, align 8, !tbaa !32
  call void @llvm.lifetime.start.p0(i64 8, ptr %5) #6
  %16 = load ptr, ptr %3, align 8, !tbaa !15
  %17 = call ptr @avformat_new_stream(ptr noundef %16, ptr noundef null)
  store ptr %17, ptr %5, align 8, !tbaa !33
  %18 = load ptr, ptr %5, align 8, !tbaa !33
  %19 = icmp ne ptr %18, null
  br i1 %19, label %21, label %20

20:                                               ; preds = %1
  store i32 -12, ptr %2, align 4
  store i32 1, ptr %6, align 4
  br label %89

21:                                               ; preds = %1
  %22 = load ptr, ptr %5, align 8, !tbaa !33
  call void @avpriv_set_pts_info(ptr noundef %22, i32 noundef 64, i32 noundef 1, i32 noundef 100)
  %23 = load ptr, ptr %5, align 8, !tbaa !33
  %24 = getelementptr inbounds nuw %struct.AVStream, ptr %23, i32 0, i32 3
  %25 = load ptr, ptr %24, align 8, !tbaa !35
  %26 = getelementptr inbounds nuw %struct.AVCodecParameters, ptr %25, i32 0, i32 0
  store i32 3, ptr %26, align 8, !tbaa !42
  %27 = load ptr, ptr %5, align 8, !tbaa !33
  %28 = getelementptr inbounds nuw %struct.AVStream, ptr %27, i32 0, i32 3
  %29 = load ptr, ptr %28, align 8, !tbaa !35
  %30 = getelementptr inbounds nuw %struct.AVCodecParameters, ptr %29, i32 0, i32 1
  store i32 94228, ptr %30, align 4, !tbaa !45
  br label %31

31:                                               ; preds = %84, %21
  %32 = load ptr, ptr %3, align 8, !tbaa !15
  %33 = getelementptr inbounds nuw %struct.AVFormatContext, ptr %32, i32 0, i32 4
  %34 = load ptr, ptr %33, align 8, !tbaa !46
  %35 = call i32 @avio_feof(ptr noundef %34)
  %36 = icmp ne i32 %35, 0
  %37 = xor i1 %36, true
  br i1 %37, label %38, label %85

38:                                               ; preds = %31
  call void @llvm.lifetime.start.p0(i64 4096, ptr %7) #6
  call void @llvm.lifetime.start.p0(i64 8, ptr %8) #6
  %39 = getelementptr inbounds [4096 x i8], ptr %7, i64 0, i64 0
  store ptr %39, ptr %8, align 8, !tbaa !13
  call void @llvm.lifetime.start.p0(i64 8, ptr %9) #6
  %40 = load ptr, ptr %3, align 8, !tbaa !15
  %41 = getelementptr inbounds nuw %struct.AVFormatContext, ptr %40, i32 0, i32 4
  %42 = load ptr, ptr %41, align 8, !tbaa !46
  %43 = call i64 @avio_tell(ptr noundef %42)
  store i64 %43, ptr %9, align 8, !tbaa !47
  call void @llvm.lifetime.start.p0(i64 4, ptr %10) #6
  %44 = load ptr, ptr %3, align 8, !tbaa !15
  %45 = getelementptr inbounds nuw %struct.AVFormatContext, ptr %44, i32 0, i32 4
  %46 = load ptr, ptr %45, align 8, !tbaa !46
  %47 = getelementptr inbounds [4096 x i8], ptr %7, i64 0, i64 0
  %48 = call i32 @ff_get_line(ptr noundef %46, ptr noundef %47, i32 noundef 4096)
  store i32 %48, ptr %10, align 4, !tbaa !48
  call void @llvm.lifetime.start.p0(i64 8, ptr %11) #6
  %49 = load i32, ptr %10, align 4, !tbaa !48
  %50 = icmp ne i32 %49, 0
  br i1 %50, label %52, label %51

51:                                               ; preds = %38
  store i32 3, ptr %6, align 4
  br label %82

52:                                               ; preds = %38
  %53 = getelementptr inbounds [4096 x i8], ptr %7, i64 0, i64 0
  %54 = call i64 @strcspn(ptr noundef %53, ptr noundef @.str.6) #7
  %55 = getelementptr inbounds nuw [4096 x i8], ptr %7, i64 0, i64 %54
  store i8 0, ptr %55, align 1, !tbaa !14
  %56 = call i64 @read_ts(ptr noundef %8)
  store i64 %56, ptr %11, align 8, !tbaa !47
  %57 = load i64, ptr %11, align 8, !tbaa !47
  %58 = icmp ne i64 %57, -9223372036854775808
  br i1 %58, label %59, label %81

59:                                               ; preds = %52
  call void @llvm.lifetime.start.p0(i64 8, ptr %12) #6
  %60 = load ptr, ptr %4, align 8, !tbaa !32
  %61 = getelementptr inbounds nuw %struct.VPlayerContext, ptr %60, i32 0, i32 0
  %62 = load ptr, ptr %8, align 8, !tbaa !13
  %63 = load ptr, ptr %8, align 8, !tbaa !13
  %64 = call i64 @strlen(ptr noundef %63) #7
  %65 = call ptr @ff_subtitles_queue_insert(ptr noundef %61, ptr noundef %62, i64 noundef %64, i32 noundef 0)
  store ptr %65, ptr %12, align 8, !tbaa !49
  %66 = load ptr, ptr %12, align 8, !tbaa !49
  %67 = icmp ne ptr %66, null
  br i1 %67, label %69, label %68

68:                                               ; preds = %59
  store i32 -12, ptr %2, align 4
  store i32 1, ptr %6, align 4
  br label %78

69:                                               ; preds = %59
  %70 = load i64, ptr %9, align 8, !tbaa !47
  %71 = load ptr, ptr %12, align 8, !tbaa !49
  %72 = getelementptr inbounds nuw %struct.AVPacket, ptr %71, i32 0, i32 10
  store i64 %70, ptr %72, align 8, !tbaa !51
  %73 = load i64, ptr %11, align 8, !tbaa !47
  %74 = load ptr, ptr %12, align 8, !tbaa !49
  %75 = getelementptr inbounds nuw %struct.AVPacket, ptr %74, i32 0, i32 1
  store i64 %73, ptr %75, align 8, !tbaa !52
  %76 = load ptr, ptr %12, align 8, !tbaa !49
  %77 = getelementptr inbounds nuw %struct.AVPacket, ptr %76, i32 0, i32 9
  store i64 -1, ptr %77, align 8, !tbaa !53
  store i32 0, ptr %6, align 4
  br label %78

78:                                               ; preds = %69, %68
  call void @llvm.lifetime.end.p0(i64 8, ptr %12) #6
  %79 = load i32, ptr %6, align 4
  switch i32 %79, label %82 [
    i32 0, label %80
  ]

80:                                               ; preds = %78
  br label %81

81:                                               ; preds = %80, %52
  store i32 0, ptr %6, align 4
  br label %82

82:                                               ; preds = %81, %78, %51
  call void @llvm.lifetime.end.p0(i64 8, ptr %11) #6
  call void @llvm.lifetime.end.p0(i64 4, ptr %10) #6
  call void @llvm.lifetime.end.p0(i64 8, ptr %9) #6
  call void @llvm.lifetime.end.p0(i64 8, ptr %8) #6
  call void @llvm.lifetime.end.p0(i64 4096, ptr %7) #6
  %83 = load i32, ptr %6, align 4
  switch i32 %83, label %89 [
    i32 0, label %84
    i32 3, label %85
  ]

84:                                               ; preds = %82
  br label %31, !llvm.loop !54

85:                                               ; preds = %82, %31
  %86 = load ptr, ptr %3, align 8, !tbaa !15
  %87 = load ptr, ptr %4, align 8, !tbaa !32
  %88 = getelementptr inbounds nuw %struct.VPlayerContext, ptr %87, i32 0, i32 0
  call void @ff_subtitles_queue_finalize(ptr noundef %86, ptr noundef %88)
  store i32 0, ptr %2, align 4
  store i32 1, ptr %6, align 4
  br label %89

89:                                               ; preds = %85, %82, %20
  call void @llvm.lifetime.end.p0(i64 8, ptr %5) #6
  call void @llvm.lifetime.end.p0(i64 8, ptr %4) #6
  %90 = load i32, ptr %2, align 4
  ret i32 %90
}