; Function Attrs: nounwind uwtable
define internal range(i32 -12, 1) i32 @vplayer_read_header(ptr noundef %0) #1 {
  %2 = alloca i8, align 1
  %3 = alloca i32, align 4
  %4 = alloca i32, align 4
  %5 = alloca i32, align 4
  %6 = alloca i32, align 4
  %7 = alloca i32, align 4
  %8 = alloca [4096 x i8], align 16
  %9 = getelementptr inbounds nuw i8, ptr %0, i64 24
  %10 = load ptr, ptr %9, align 8, !tbaa !12
  %11 = tail call ptr @avformat_new_stream(ptr noundef %0, ptr noundef null) #6
  %.not = icmp eq ptr %11, null
  br i1 %.not, label %63, label %12

12:                                               ; preds = %1
  tail call void @avpriv_set_pts_info(ptr noundef nonnull %11, i32 noundef 64, i32 noundef 1, i32 noundef 100) #6
  %13 = getelementptr inbounds nuw i8, ptr %11, i64 16
  %14 = load ptr, ptr %13, align 8, !tbaa !27
  store i32 3, ptr %14, align 8, !tbaa !34
  %15 = getelementptr inbounds nuw i8, ptr %14, i64 4
  store i32 94228, ptr %15, align 4, !tbaa !37
  %16 = getelementptr inbounds nuw i8, ptr %0, i64 32
  %17 = load ptr, ptr %16, align 8, !tbaa !38
  %18 = tail call i32 @avio_feof(ptr noundef %17) #6
  %.not2741 = icmp eq i32 %18, 0
  br i1 %.not2741, label %.lr.ph, label %.loopexit

.lr.ph:                                           ; preds = %12, %.critedge
  call void @llvm.lifetime.start.p0(i64 4096, ptr nonnull %8) #6
  %19 = load ptr, ptr %16, align 8, !tbaa !38
  %20 = call i64 @avio_seek(ptr noundef %19, i64 noundef 0, i32 noundef 1) #6
  %21 = load ptr, ptr %16, align 8, !tbaa !38
  %22 = call i32 @ff_get_line(ptr noundef %21, ptr noundef nonnull %8, i32 noundef 4096) #6
  %.not28 = icmp eq i32 %22, 0
  br i1 %.not28, label %.critedge.thread39, label %23

.critedge.thread39:                               ; preds = %.lr.ph
  call void @llvm.lifetime.end.p0(i64 4096, ptr nonnull %8) #6
  br label %.loopexit

23:                                               ; preds = %.lr.ph
  %24 = call i64 @strcspn(ptr noundef nonnull %8, ptr noundef nonnull @.str.6) #7
  %25 = getelementptr inbounds nuw [4096 x i8], ptr %8, i64 0, i64 %24
  store i8 0, ptr %25, align 1, !tbaa !11
  call void @llvm.lifetime.start.p0(i64 1, ptr nonnull %2) #6
  call void @llvm.lifetime.start.p0(i64 4, ptr nonnull %3) #6
  call void @llvm.lifetime.start.p0(i64 4, ptr nonnull %4) #6
  call void @llvm.lifetime.start.p0(i64 4, ptr nonnull %5) #6
  call void @llvm.lifetime.start.p0(i64 4, ptr nonnull %6) #6
  call void @llvm.lifetime.start.p0(i64 4, ptr nonnull %7) #6
  %26 = call i32 (ptr, ptr, ...) @__isoc99_sscanf(ptr noundef nonnull %8, ptr noundef nonnull @.str.7, ptr noundef nonnull %3, ptr noundef nonnull %4, ptr noundef nonnull %5, ptr noundef nonnull %6, ptr noundef nonnull %2, ptr noundef nonnull %7) #6
  %27 = icmp sgt i32 %26, 4
  br i1 %27, label %31, label %28

28:                                               ; preds = %23
  %29 = call i32 (ptr, ptr, ...) @__isoc99_sscanf(ptr noundef nonnull %8, ptr noundef nonnull @.str.8, ptr noundef nonnull %3, ptr noundef nonnull %4, ptr noundef nonnull %5, ptr noundef nonnull %2, ptr noundef nonnull %7) #6
  %30 = icmp sgt i32 %29, 3
  br i1 %30, label %31, label %read_ts.exit.thread

31:                                               ; preds = %28, %23
  %.0.i = phi i32 [ %26, %23 ], [ %29, %28 ]
  %32 = load i8, ptr %2, align 1, !tbaa !11
  %33 = zext nneg i8 %32 to i64
  %memchr.bounds.i = icmp ugt i8 %32, 63
  %34 = shl nuw i64 1, %33
  %35 = and i64 %34, 2594073389660372993
  %memchr.bits.i = icmp eq i64 %35, 0
  %memchr7.not.i = select i1 %memchr.bounds.i, i1 true, i1 %memchr.bits.i
  br i1 %memchr7.not.i, label %read_ts.exit.thread, label %read_ts.exit

read_ts.exit.thread:                              ; preds = %31, %28
  call void @llvm.lifetime.end.p0(i64 4, ptr nonnull %7) #6
  call void @llvm.lifetime.end.p0(i64 4, ptr nonnull %6) #6
  call void @llvm.lifetime.end.p0(i64 4, ptr nonnull %5) #6
  call void @llvm.lifetime.end.p0(i64 4, ptr nonnull %4) #6
  call void @llvm.lifetime.end.p0(i64 4, ptr nonnull %3) #6
  call void @llvm.lifetime.end.p0(i64 1, ptr nonnull %2) #6
  br label %.critedge

read_ts.exit:                                     ; preds = %31
  %36 = load i32, ptr %7, align 4, !tbaa !39
  %37 = sext i32 %36 to i64
  %38 = getelementptr inbounds i8, ptr %8, i64 %37
  %39 = load i32, ptr %3, align 4, !tbaa !39
  %40 = load i32, ptr %4, align 4, !tbaa !39
  %41 = load i32, ptr %5, align 4, !tbaa !39
  %42 = load i32, ptr %6, align 4
  call void @llvm.lifetime.end.p0(i64 4, ptr nonnull %7) #6
  call void @llvm.lifetime.end.p0(i64 4, ptr nonnull %6) #6
  call void @llvm.lifetime.end.p0(i64 4, ptr nonnull %5) #6
  call void @llvm.lifetime.end.p0(i64 4, ptr nonnull %4) #6
  call void @llvm.lifetime.end.p0(i64 4, ptr nonnull %3) #6
  call void @llvm.lifetime.end.p0(i64 1, ptr nonnull %2) #6
  %43 = call i64 @strlen(ptr noundef nonnull dereferenceable(1) %38) #7
  %44 = call ptr @ff_subtitles_queue_insert(ptr noundef %10, ptr noundef nonnull %38, i64 noundef %43, i32 noundef 0) #6
  %.not30.not = icmp eq ptr %44, null
  br i1 %.not30.not, label %.critedge.thread, label %45

.critedge.thread:                                 ; preds = %read_ts.exit
  call void @llvm.lifetime.end.p0(i64 4096, ptr nonnull %8) #6
  br label %63

45:                                               ; preds = %read_ts.exit
  %46 = sext i32 %40 to i64
  %47 = mul nsw i64 %46, 60
  %48 = sext i32 %39 to i64
  %49 = mul nsw i64 %48, 3600
  %50 = add nsw i64 %47, %49
  %51 = sext i32 %41 to i64
  %52 = add nsw i64 %50, %51
  %53 = mul nsw i64 %52, 100
  %54 = icmp samesign ult i32 %.0.i, 5
  %55 = select i1 %54, i32 0, i32 %42
  %56 = sext i32 %55 to i64
  %57 = add nsw i64 %53, %56
  %58 = getelementptr inbounds nuw i8, ptr %44, i64 72
  store i64 %20, ptr %58, align 8, !tbaa !40
  %59 = getelementptr inbounds nuw i8, ptr %44, i64 8
  store i64 %57, ptr %59, align 8, !tbaa !41
  %60 = getelementptr inbounds nuw i8, ptr %44, i64 64
  store i64 -1, ptr %60, align 8, !tbaa !42
  br label %.critedge

.critedge:                                        ; preds = %read_ts.exit.thread, %45
  call void @llvm.lifetime.end.p0(i64 4096, ptr nonnull %8) #6
  %61 = load ptr, ptr %16, align 8, !tbaa !38
  %62 = call i32 @avio_feof(ptr noundef %61) #6
  %.not27 = icmp eq i32 %62, 0
  br i1 %.not27, label %.lr.ph, label %.loopexit

.loopexit:                                        ; preds = %.critedge, %12, %.critedge.thread39
  call void @ff_subtitles_queue_finalize(ptr noundef nonnull %0, ptr noundef %10) #6
  br label %63

63:                                               ; preds = %.critedge.thread, %1, %.loopexit
  %.0 = phi i32 [ 0, %.loopexit ], [ -12, %1 ], [ -12, %.critedge.thread ]
  ret i32 %.0
}